; Function Attrs: mustprogress nofree norecurse nosync nounwind memory(readwrite, inaccessiblemem: none) uwtable
define internal void @_ZN5faiss12_GLOBAL__N_110IVFScannerINS_17HammingComputer32EE8set_listElf(ptr nocapture noundef nonnull align 8 dereferenceable(168) %0, i64 noundef %1, float %2) unnamed_addr #15 align 2 {
  %4 = getelementptr inbounds i8, ptr %0, i64 8
  store i64 %1, ptr %4, align 8
  %5 = getelementptr inbounds i8, ptr %0, i64 40
  %6 = load ptr, ptr %5, align 8
  %7 = getelementptr inbounds i8, ptr %6, i64 284
  %8 = load i32, ptr %7, align 4
  %.not = icmp eq i32 %8, 0
  br i1 %.not, label %53, label %9

9:                                                ; preds = %3
  %10 = getelementptr inbounds i8, ptr %6, i64 288
  %11 = load ptr, ptr %10, align 8
  %12 = getelementptr inbounds i8, ptr %0, i64 48
  %13 = load i64, ptr %12, align 8
  %14 = mul i64 %13, %1
  %15 = getelementptr inbounds float, ptr %11, i64 %14
  %16 = getelementptr inbounds i8, ptr %0, i64 60
  %17 = load float, ptr %16, align 4
  %18 = getelementptr inbounds i8, ptr %0, i64 64
  %19 = load ptr, ptr %18, align 8
  %20 = getelementptr inbounds i8, ptr %0, i64 112
  %21 = load ptr, ptr %20, align 8
  %22 = add i64 %13, 7
  %23 = lshr i64 %22, 3
  tail call void @llvm.memset.p0.i64(ptr align 1 %21, i8 0, i64 %23, i1 false)
  %.not.i = icmp eq i64 %13, 0
  br i1 %.not.i, label %_ZN5faiss12_GLOBAL__N_118binarize_with_freqEmfPKfS2_Ph.exit, label %.lr.ph.i

.lr.ph.i:                                         ; preds = %9, %.lr.ph.i
  %.015.i = phi i64 [ %40, %.lr.ph.i ], [ 0, %9 ]
  %24 = getelementptr inbounds float, ptr %19, i64 %.015.i
  %25 = load float, ptr %24, align 4
  %26 = getelementptr inbounds float, ptr %15, i64 %.015.i
  %27 = load float, ptr %26, align 4
  %28 = fsub float %25, %27
  %29 = fmul float %17, %28
  %30 = tail call float @llvm.floor.f32(float %29)
  %31 = fptosi float %30 to i64
  %32 = and i64 %31, 1
  %33 = and i64 %.015.i, 7
  %34 = shl nuw nsw i64 %32, %33
  %35 = lshr i64 %.015.i, 3
  %36 = getelementptr inbounds i8, ptr %21, i64 %35
  %37 = load i8, ptr %36, align 1
  %38 = trunc i64 %34 to i8
  %39 = or i8 %37, %38
  store i8 %39, ptr %36, align 1
  %40 = add nuw i64 %.015.i, 1
  %exitcond.not.i = icmp eq i64 %40, %13
  br i1 %exitcond.not.i, label %_ZN5faiss12_GLOBAL__N_118binarize_with_freqEmfPKfS2_Ph.exit, label %.lr.ph.i, !llvm.loop !5

_ZN5faiss12_GLOBAL__N_118binarize_with_freqEmfPKfS2_Ph.exit: ; preds = %.lr.ph.i, %9
  %41 = getelementptr inbounds i8, ptr %0, i64 136
  %42 = load ptr, ptr %20, align 8
  %43 = load i64, ptr %42, align 8
  store i64 %43, ptr %41, align 8
  %44 = getelementptr inbounds i8, ptr %42, i64 8
  %45 = load i64, ptr %44, align 8
  %46 = getelementptr inbounds i8, ptr %0, i64 144
  store i64 %45, ptr %46, align 8
  %47 = getelementptr inbounds i8, ptr %42, i64 16
  %48 = load i64, ptr %47, align 8
  %49 = getelementptr inbounds i8, ptr %0, i64 152
  store i64 %48, ptr %49, align 8
  %50 = getelementptr inbounds i8, ptr %42, i64 24
  %51 = load i64, ptr %50, align 8
  %52 = getelementptr inbounds i8, ptr %0, i64 160
  store i64 %51, ptr %52, align 8
  br label %53

53:                                               ; preds = %_ZN5faiss12_GLOBAL__N_118binarize_with_freqEmfPKfS2_Ph.exit, %3
  ret void
}